Certificate:
    Data:
        Version: 3 (0x2)
        Serial Number: 1 (0x1)
    Signature Algorithm: sha1WithRSAEncryption
        Issuer: C=CN, ST=GD, L=SZ, O=MTT, OU=QB, CN=kevincjchen/emailAddress=a@qq.com
        Validity
            Not Before: Sep 24 11:29:33 2015 GMT
            Not After : Sep 23 11:29:33 2019 GMT
        Subject: C=CN, ST=GD, L=SZ, O=MTT, OU=QB, CN=kk/emailAddress=kk@qq.com
        Subject Public Key Info:
            Public Key Algorithm: rsaEncryption
                Public-Key: (2048 bit)
                Modulus:
                    00:be:5d:df:e8:ea:c2:4a:91:5a:e3:24:4b:8c:06:
                    f5:61:4a:20:83:2d:21:16:d6:4e:57:73:ff:e7:29:
                    22:ff:d6:29:e9:1f:a1:a0:e4:db:cb:ef:31:6c:ae:
                    63:1e:36:79:b7:09:92:fc:7f:12:01:a4:1b:4f:78:
                    27:5f:fc:93:2f:87:c2:20:3d:71:87:c8:9a:03:e2:
                    c4:85:6e:a7:76:7d:cc:d1:aa:64:2a:b2:be:e9:6d:
                    2d:d1:cd:5c:57:a4:c9:e9:6f:65:b4:f0:ef:5e:a6:
                    bf:8c:f6:91:52:e9:72:d6:f1:2c:f6:78:25:df:b0:
                    84:32:3c:0c:dd:0e:4e:e5:fa:6a:8a:b9:37:67:8b:
                    29:4a:0b:2a:73:d1:18:3e:cd:16:af:50:a7:c6:25:
                    e8:a4:65:4e:f1:98:fb:41:95:f5:31:16:a8:48:b3:
                    e6:24:44:1f:c9:03:ae:1c:66:b8:52:fa:aa:41:51:
                    44:11:da:8a:2d:cc:23:b7:bb:a9:bf:6f:45:c3:cc:
                    a6:b1:f5:70:cb:82:2f:7b:b5:77:a7:27:3a:5a:19:
                    3a:09:64:e6:87:dc:01:9d:52:c3:7e:e6:7c:81:6a:
                    b4:f1:b4:11:31:ec:aa:87:a9:99:1c:43:85:46:6f:
                    71:cd:fe:a0:81:71:d9:dc:fb:1c:da:35:4f:30:21:
                    4b:9b
                Exponent: 65537 (0x10001)
        X509v3 extensions:
            X509v3 Basic Constraints: 
                CA:FALSE
            Netscape Comment: 
                OpenSSL Generated Certificate
            X509v3 Subject Key Identifier: 
                22:0D:F6:43:83:BA:12:15:D5:55:96:08:BF:20:0D:E5:1F:D2:AA:77
            X509v3 Authority Key Identifier: 
                keyid:6E:4D:CA:1C:A8:89:77:FF:F5:5D:6F:BA:B1:B6:00:42:D7:8C:9D:0E

    Signature Algorithm: sha1WithRSAEncryption
         67:8a:c1:c7:d0:01:03:7c:6c:27:41:29:7c:21:ed:ce:6b:b6:
         1c:e1:63:97:00:50:cc:99:d2:2b:87:ee:57:3a:bb:f9:ae:28:
         f0:03:9a:d7:94:f9:f2:9e:80:26:99:06:f8:59:bf:c1:74:c5:
         c5:6a:08:4c:a1:0d:ce:5b:bc:07:9f:cd:db:8c:36:a6:72:a1:
         60:82:a5:bc:fb:6c:ae:5b:81:81:79:06:46:09:5e:60:d5:48:
         de:15:af:02:c1:60:30:dd:c8:38:b1:00:16:68:ab:de:3c:bb:
         5c:f5:1c:52:5b:6d:cc:26:ba:87:41:be:36:76:e9:f9:f0:43:
         11:0c:b5:c2:14:e4:74:1f:0b:ac:3a:75:69:29:7f:b6:4b:91:
         f5:eb:c0:9e:80:7e:45:68:70:89:4a:4a:85:de:4c:c3:09:5f:
         f9:17:aa:52:7d:f3:44:06:d0:02:d7:45:06:6e:7a:7a:2b:5b:
         da:39:c0:26:de:08:81:1e:29:83:aa:3c:f8:8d:0b:3b:0d:b5:
         a5:11:49:b5:13:63:20:2c:b8:44:99:0b:ff:3a:c5:8b:b5:69:
         6e:11:7b:12:d9:ae:64:ba:f3:2f:8e:2c:b8:1b:78:a1:cc:b6:
         56:7b:08:cd:17:d6:48:45:e7:91:0d:9c:09:a9:34:46:c3:11:
         14:04:b4:10
-----BEGIN CERTIFICATE-----
MIID0DCCArigAwIBAgIBATANBgkqhkiG9w0BAQUFADBxMQswCQYDVQQGEwJDTjEL
MAkGA1UECAwCR0QxCzAJBgNVBAcMAlNaMQwwCgYDVQQKDANNVFQxCzAJBgNVBAsM
AlFCMRQwEgYDVQQDDAtrZXZpbmNqY2hlbjEXMBUGCSqGSIb3DQEJARYIYUBxcS5j
b20wHhcNMTUwOTI0MTEyOTMzWhcNMTkwOTIzMTEyOTMzWjBpMQswCQYDVQQGEwJD
TjELMAkGA1UECAwCR0QxCzAJBgNVBAcMAlNaMQwwCgYDVQQKDANNVFQxCzAJBgNV
BAsMAlFCMQswCQYDVQQDDAJrazEYMBYGCSqGSIb3DQEJARYJa2tAcXEuY29tMIIB
IjANBgkqhkiG9w0BAQEFAAOCAQ8AMIIBCgKCAQEAvl3f6OrCSpFa4yRLjAb1YUog
gy0hFtZOV3P/5yki/9Yp6R+hoOTby+8xbK5jHjZ5twmS/H8SAaQbT3gnX/yTL4fC
ID1xh8iaA+LEhW6ndn3M0apkKrK+6W0t0c1cV6TJ6W9ltPDvXqa/jPaRUuly1vEs
9ngl37CEMjwM3Q5O5fpqirk3Z4spSgsqc9EYPs0Wr1CnxiXopGVO8Zj7QZX1MRao
SLPmJEQfyQOuHGa4UvqqQVFEEdqKLcwjt7upv29Fw8ymsfVwy4Ive7V3pyc6Whk6
CWTmh9wBnVLDfuZ8gWq08bQRMeyqh6mZHEOFRm9xzf6ggXHZ3Psc2jVPMCFLmwID
AQABo3sweTAJBgNVHRMEAjAAMCwGCWCGSAGG+EIBDQQfFh1PcGVuU1NMIEdlbmVy
YXRlZCBDZXJ0aWZpY2F0ZTAdBgNVHQ4EFgQUIg32Q4O6EhXVVZYIvyAN5R/Sqncw
HwYDVR0jBBgwFoAUbk3KHKiJd//1XW+6sbYAQteMnQ4wDQYJKoZIhvcNAQEFBQAD
ggEBAGeKwcfQAQN8bCdBKXwh7c5rthzhY5cAUMyZ0iuH7lc6u/muKPADmteU+fKe
gCaZBvhZv8F0xcVqCEyhDc5bvAefzduMNqZyoWCCpbz7bK5bgYF5BkYJXmDVSN4V
rwLBYDDdyDixABZoq948u1z1HFJbbcwmuodBvjZ26fnwQxEMtcIU5HQfC6w6dWkp
f7ZLkfXrwJ6AfkVocIlKSoXeTMMJX/kXqlJ980QG0ALXRQZuenorW9o5wCbeCIEe
KYOqPPiNCzsNtaURSbUTYyAsuESZC/86xYu1aW4RexLZrmS68y+OLLgbeKHMtlZ7
CM0X1khF55ENnAmpNEbDERQEtBA=
-----END CERTIFICATE-----
